target datalayout = "e-m:e-p270:32:32-p271:32:32-p272:64:64-i64:64-i128:128-f80:128-n8:16:32:64-S128"
target triple = "x86_64-pc-linux-gnu"

%struct.control_t = type { %struct.block_header_t, i32, [9 x i32], [9 x [32 x ptr]] }
%struct.block_header_t = type { ptr, i64, ptr, ptr }

; Function Attrs: nounwind uwtable
define internal i32 @tlsf_fls(i32 noundef %0) #0 {
  %2 = alloca i32, align 4
  %3 = alloca i32, align 4
  store i32 %0, ptr %2, align 4, !tbaa !7
  call void @llvm.lifetime.start.p0(i64 4, ptr %3) #5
  %4 = load i32, ptr %2, align 4, !tbaa !7
  %5 = icmp ne i32 %4, 0
  br i1 %5, label %6, label %10

6:                                                ; preds = %1
  %7 = load i32, ptr %2, align 4, !tbaa !7
  %8 = call i32 @llvm.ctlz.i32(i32 %7, i1 true)
  %9 = sub nsw i32 32, %8
  br label %11

10:                                               ; preds = %1
  br label %11

11:                                               ; preds = %10, %6
  %12 = phi i32 [ %9, %6 ], [ 0, %10 ]
  store i32 %12, ptr %3, align 4, !tbaa !7
  %13 = load i32, ptr %3, align 4, !tbaa !7
  %14 = sub nsw i32 %13, 1
  call void @llvm.lifetime.end.p0(i64 4, ptr %3) #5
  ret i32 %14
}

; Function Attrs: nounwind uwtable
define internal i32 @tlsf_ffs(i32 noundef %0) #0 {
  %2 = alloca i32, align 4
  store i32 %0, ptr %2, align 4, !tbaa !7
  %3 = load i32, ptr %2, align 4, !tbaa !7
  %4 = call i32 @llvm.cttz.i32(i32 %3, i1 true)
  %5 = add i32 %4, 1
  %6 = icmp eq i32 %3, 0
  %7 = select i1 %6, i32 0, i32 %5
  %8 = sub nsw i32 %7, 1
  ret i32 %8
}

; Function Attrs: nounwind uwtable
define internal void @mapping_insert(i64 noundef %0, ptr noundef %1, ptr noundef %2) #0 {
  %4 = alloca i64, align 8
  %5 = alloca ptr, align 8
  %6 = alloca ptr, align 8
  %7 = alloca i32, align 4
  %8 = alloca i32, align 4
  store i64 %0, ptr %4, align 8, !tbaa !19
  store ptr %1, ptr %5, align 8, !tbaa !3
  store ptr %2, ptr %6, align 8, !tbaa !3
  call void @llvm.lifetime.start.p0(i64 4, ptr %7) #5
  call void @llvm.lifetime.start.p0(i64 4, ptr %8) #5
  %9 = load i64, ptr %4, align 8, !tbaa !19
  %10 = icmp ult i64 %9, 256
  br i1 %10, label %11, label %15

11:                                               ; preds = %3
  store i32 0, ptr %7, align 4, !tbaa !7
  %12 = load i64, ptr %4, align 8, !tbaa !19
  %13 = trunc i64 %12 to i32
  %14 = sdiv i32 %13, 8
  store i32 %14, ptr %8, align 4, !tbaa !7
  br label %27

15:                                               ; preds = %3
  %16 = load i64, ptr %4, align 8, !tbaa !19
  %17 = call i32 @tlsf_fls_sizet(i64 noundef %16)
  store i32 %17, ptr %7, align 4, !tbaa !7
  %18 = load i64, ptr %4, align 8, !tbaa !19
  %19 = load i32, ptr %7, align 4, !tbaa !7
  %20 = sub nsw i32 %19, 5
  %21 = zext i32 %20 to i64
  %22 = lshr i64 %18, %21
  %23 = trunc i64 %22 to i32
  %24 = xor i32 %23, 32
  store i32 %24, ptr %8, align 4, !tbaa !7
  %25 = load i32, ptr %7, align 4, !tbaa !7
  %26 = sub nsw i32 %25, 7
  store i32 %26, ptr %7, align 4, !tbaa !7
  br label %27

27:                                               ; preds = %15, %11
  %28 = load i32, ptr %7, align 4, !tbaa !7
  %29 = load ptr, ptr %5, align 8, !tbaa !3
  store i32 %28, ptr %29, align 4, !tbaa !7
  %30 = load i32, ptr %8, align 4, !tbaa !7
  %31 = load ptr, ptr %6, align 8, !tbaa !3
  store i32 %30, ptr %31, align 4, !tbaa !7
  call void @llvm.lifetime.end.p0(i64 4, ptr %8) #5
  call void @llvm.lifetime.end.p0(i64 4, ptr %7) #5
  ret void
}

; Function Attrs: nounwind uwtable
define internal i32 @tlsf_fls_sizet(i64 noundef %0) #0 {
  %2 = alloca i64, align 8
  %3 = alloca i32, align 4
  %4 = alloca i32, align 4
  store i64 %0, ptr %2, align 8, !tbaa !19
  call void @llvm.lifetime.start.p0(i64 4, ptr %3) #5
  %5 = load i64, ptr %2, align 8, !tbaa !19
  %6 = lshr i64 %5, 32
  %7 = trunc i64 %6 to i32
  store i32 %7, ptr %3, align 4, !tbaa !7
  call void @llvm.lifetime.start.p0(i64 4, ptr %4) #5
  store i32 0, ptr %4, align 4, !tbaa !7
  %8 = load i32, ptr %3, align 4, !tbaa !7
  %9 = icmp ne i32 %8, 0
  br i1 %9, label %10, label %14

10:                                               ; preds = %1
  %11 = load i32, ptr %3, align 4, !tbaa !7
  %12 = call i32 @tlsf_fls(i32 noundef %11)
  %13 = add nsw i32 32, %12
  store i32 %13, ptr %4, align 4, !tbaa !7
  br label %19

14:                                               ; preds = %1
  %15 = load i64, ptr %2, align 8, !tbaa !19
  %16 = trunc i64 %15 to i32
  %17 = and i32 %16, -1
  %18 = call i32 @tlsf_fls(i32 noundef %17)
  store i32 %18, ptr %4, align 4, !tbaa !7
  br label %19

19:                                               ; preds = %14, %10
  %20 = load i32, ptr %4, align 4, !tbaa !7
  call void @llvm.lifetime.end.p0(i64 4, ptr %4) #5
  call void @llvm.lifetime.end.p0(i64 4, ptr %3) #5
  ret i32 %20
}

; Function Attrs: nounwind uwtable
define internal void @remove_free_block(ptr noundef %0, ptr noundef %1, i32 noundef %2, i32 noundef %3) #0 {
  %5 = alloca ptr, align 8
  %6 = alloca ptr, align 8
  %7 = alloca i32, align 4
  %8 = alloca i32, align 4
  %9 = alloca ptr, align 8
  %10 = alloca ptr, align 8
  store ptr %0, ptr %5, align 8, !tbaa !3
  store ptr %1, ptr %6, align 8, !tbaa !3
  store i32 %2, ptr %7, align 4, !tbaa !7
  store i32 %3, ptr %8, align 4, !tbaa !7
  call void @llvm.lifetime.start.p0(i64 8, ptr %9) #5
  %11 = load ptr, ptr %6, align 8, !tbaa !3
  %12 = getelementptr inbounds nuw %struct.block_header_t, ptr %11, i32 0, i32 3
  %13 = load ptr, ptr %12, align 8, !tbaa !25
  store ptr %13, ptr %9, align 8, !tbaa !3
  call void @llvm.lifetime.start.p0(i64 8, ptr %10) #5
  %14 = load ptr, ptr %6, align 8, !tbaa !3
  %15 = getelementptr inbounds nuw %struct.block_header_t, ptr %14, i32 0, i32 2
  %16 = load ptr, ptr %15, align 8, !tbaa !13
  store ptr %16, ptr %10, align 8, !tbaa !3
  br label %17

17:                                               ; preds = %4
  %18 = load ptr, ptr %9, align 8, !tbaa !3
  %19 = icmp ne ptr %18, null
  br i1 %19, label %20, label %21

20:                                               ; preds = %17
  br i1 true, label %27, label %21

21:                                               ; preds = %20, %17
  br label %22

22:                                               ; preds = %21
  br label %23

23:                                               ; preds = %22
  br label %24

24:                                               ; preds = %23
  br label %25

25:                                               ; preds = %26, %24
  br label %26

26:                                               ; preds = %25
  br label %25

27:                                               ; preds = %20
  br label %28

28:                                               ; preds = %27
  br label %29

29:                                               ; preds = %28
  br label %30

30:                                               ; preds = %29
  %31 = load ptr, ptr %10, align 8, !tbaa !3
  %32 = icmp ne ptr %31, null
  br i1 %32, label %33, label %34

33:                                               ; preds = %30
  br i1 true, label %40, label %34

34:                                               ; preds = %33, %30
  br label %35

35:                                               ; preds = %34
  br label %36

36:                                               ; preds = %35
  br label %37

37:                                               ; preds = %36
  br label %38

38:                                               ; preds = %39, %37
  br label %39

39:                                               ; preds = %38
  br label %38

40:                                               ; preds = %33
  br label %41

41:                                               ; preds = %40
  br label %42

42:                                               ; preds = %41
  %43 = load ptr, ptr %9, align 8, !tbaa !3
  %44 = load ptr, ptr %10, align 8, !tbaa !3
  %45 = getelementptr inbounds nuw %struct.block_header_t, ptr %44, i32 0, i32 3
  store ptr %43, ptr %45, align 8, !tbaa !25
  %46 = load ptr, ptr %10, align 8, !tbaa !3
  %47 = load ptr, ptr %9, align 8, !tbaa !3
  %48 = getelementptr inbounds nuw %struct.block_header_t, ptr %47, i32 0, i32 2
  store ptr %46, ptr %48, align 8, !tbaa !13
  %49 = load ptr, ptr %5, align 8, !tbaa !3
  %50 = getelementptr inbounds nuw %struct.control_t, ptr %49, i32 0, i32 3
  %51 = load i32, ptr %7, align 4, !tbaa !7
  %52 = sext i32 %51 to i64
  %53 = getelementptr inbounds [9 x [32 x ptr]], ptr %50, i64 0, i64 %52
  %54 = load i32, ptr %8, align 4, !tbaa !7
  %55 = sext i32 %54 to i64
  %56 = getelementptr inbounds [32 x ptr], ptr %53, i64 0, i64 %55
  %57 = load ptr, ptr %56, align 8, !tbaa !3
  %58 = load ptr, ptr %6, align 8, !tbaa !3
  %59 = icmp eq ptr %57, %58
  br i1 %59, label %60, label %102

60:                                               ; preds = %42
  %61 = load ptr, ptr %10, align 8, !tbaa !3
  %62 = load ptr, ptr %5, align 8, !tbaa !3
  %63 = getelementptr inbounds nuw %struct.control_t, ptr %62, i32 0, i32 3
  %64 = load i32, ptr %7, align 4, !tbaa !7
  %65 = sext i32 %64 to i64
  %66 = getelementptr inbounds [9 x [32 x ptr]], ptr %63, i64 0, i64 %65
  %67 = load i32, ptr %8, align 4, !tbaa !7
  %68 = sext i32 %67 to i64
  %69 = getelementptr inbounds [32 x ptr], ptr %66, i64 0, i64 %68
  store ptr %61, ptr %69, align 8, !tbaa !3
  %70 = load ptr, ptr %10, align 8, !tbaa !3
  %71 = load ptr, ptr %5, align 8, !tbaa !3
  %72 = getelementptr inbounds nuw %struct.control_t, ptr %71, i32 0, i32 0
  %73 = icmp eq ptr %70, %72
  br i1 %73, label %74, label %101

74:                                               ; preds = %60
  %75 = load i32, ptr %8, align 4, !tbaa !7
  %76 = shl i32 1, %75
  %77 = xor i32 %76, -1
  %78 = load ptr, ptr %5, align 8, !tbaa !3
  %79 = getelementptr inbounds nuw %struct.control_t, ptr %78, i32 0, i32 2
  %80 = load i32, ptr %7, align 4, !tbaa !7
  %81 = sext i32 %80 to i64
  %82 = getelementptr inbounds [9 x i32], ptr %79, i64 0, i64 %81
  %83 = load i32, ptr %82, align 4, !tbaa !7
  %84 = and i32 %83, %77
  store i32 %84, ptr %82, align 4, !tbaa !7
  %85 = load ptr, ptr %5, align 8, !tbaa !3
  %86 = getelementptr inbounds nuw %struct.control_t, ptr %85, i32 0, i32 2
  %87 = load i32, ptr %7, align 4, !tbaa !7
  %88 = sext i32 %87 to i64
  %89 = getelementptr inbounds [9 x i32], ptr %86, i64 0, i64 %88
  %90 = load i32, ptr %89, align 4, !tbaa !7
  %91 = icmp ne i32 %90, 0
  br i1 %91, label %100, label %92

92:                                               ; preds = %74
  %93 = load i32, ptr %7, align 4, !tbaa !7
  %94 = shl i32 1, %93
  %95 = xor i32 %94, -1
  %96 = load ptr, ptr %5, align 8, !tbaa !3
  %97 = getelementptr inbounds nuw %struct.control_t, ptr %96, i32 0, i32 1
  %98 = load i32, ptr %97, align 8, !tbaa !9
  %99 = and i32 %98, %95
  store i32 %99, ptr %97, align 8, !tbaa !9
  br label %100

100:                                              ; preds = %92, %74
  br label %101

101:                                              ; preds = %100, %60
  br label %102

102:                                              ; preds = %101, %42
  call void @llvm.lifetime.end.p0(i64 8, ptr %10) #5
  call void @llvm.lifetime.end.p0(i64 8, ptr %9) #5
  ret void
}

; Function Attrs: nounwind uwtable
define internal i64 @block_size(ptr noundef %0) #0 {
  %2 = alloca ptr, align 8
  store ptr %0, ptr %2, align 8, !tbaa !3
  %3 = load ptr, ptr %2, align 8, !tbaa !3
  %4 = getelementptr inbounds nuw %struct.block_header_t, ptr %3, i32 0, i32 1
  %5 = load i64, ptr %4, align 8, !tbaa !18
  %6 = and i64 %5, -4
  ret i64 %6
}

; Function Attrs: nounwind uwtable
define internal ptr @search_suitable_block(ptr noundef %0, ptr noundef %1, ptr noundef %2) #0 {
  %4 = alloca ptr, align 8
  %5 = alloca ptr, align 8
  %6 = alloca ptr, align 8
  %7 = alloca ptr, align 8
  %8 = alloca i32, align 4
  %9 = alloca i32, align 4
  %10 = alloca i32, align 4
  %11 = alloca i32, align 4
  %12 = alloca i32, align 4
  store ptr %0, ptr %5, align 8, !tbaa !3
  store ptr %1, ptr %6, align 8, !tbaa !3
  store ptr %2, ptr %7, align 8, !tbaa !3
  call void @llvm.lifetime.start.p0(i64 4, ptr %8) #5
  %13 = load ptr, ptr %6, align 8, !tbaa !3
  %14 = load i32, ptr %13, align 4, !tbaa !7
  store i32 %14, ptr %8, align 4, !tbaa !7
  call void @llvm.lifetime.start.p0(i64 4, ptr %9) #5
  %15 = load ptr, ptr %7, align 8, !tbaa !3
  %16 = load i32, ptr %15, align 4, !tbaa !7
  store i32 %16, ptr %9, align 4, !tbaa !7
  call void @llvm.lifetime.start.p0(i64 4, ptr %10) #5
  %17 = load ptr, ptr %5, align 8, !tbaa !3
  %18 = getelementptr inbounds nuw %struct.control_t, ptr %17, i32 0, i32 2
  %19 = load i32, ptr %8, align 4, !tbaa !7
  %20 = sext i32 %19 to i64
  %21 = getelementptr inbounds [9 x i32], ptr %18, i64 0, i64 %20
  %22 = load i32, ptr %21, align 4, !tbaa !7
  %23 = load i32, ptr %9, align 4, !tbaa !7
  %24 = shl i32 -1, %23
  %25 = and i32 %22, %24
  store i32 %25, ptr %10, align 4, !tbaa !7
  %26 = load i32, ptr %10, align 4, !tbaa !7
  %27 = icmp ne i32 %26, 0
  br i1 %27, label %53, label %28

28:                                               ; preds = %3
  call void @llvm.lifetime.start.p0(i64 4, ptr %11) #5
  %29 = load ptr, ptr %5, align 8, !tbaa !3
  %30 = getelementptr inbounds nuw %struct.control_t, ptr %29, i32 0, i32 1
  %31 = load i32, ptr %30, align 8, !tbaa !9
  %32 = load i32, ptr %8, align 4, !tbaa !7
  %33 = add nsw i32 %32, 1
  %34 = shl i32 -1, %33
  %35 = and i32 %31, %34
  store i32 %35, ptr %11, align 4, !tbaa !7
  %36 = load i32, ptr %11, align 4, !tbaa !7
  %37 = icmp ne i32 %36, 0
  br i1 %37, label %39, label %38

38:                                               ; preds = %28
  store ptr null, ptr %4, align 8
  store i32 1, ptr %12, align 4
  br label %50

39:                                               ; preds = %28
  %40 = load i32, ptr %11, align 4, !tbaa !7
  %41 = call i32 @tlsf_ffs(i32 noundef %40)
  store i32 %41, ptr %8, align 4, !tbaa !7
  %42 = load i32, ptr %8, align 4, !tbaa !7
  %43 = load ptr, ptr %6, align 8, !tbaa !3
  store i32 %42, ptr %43, align 4, !tbaa !7
  %44 = load ptr, ptr %5, align 8, !tbaa !3
  %45 = getelementptr inbounds nuw %struct.control_t, ptr %44, i32 0, i32 2
  %46 = load i32, ptr %8, align 4, !tbaa !7
  %47 = sext i32 %46 to i64
  %48 = getelementptr inbounds [9 x i32], ptr %45, i64 0, i64 %47
  %49 = load i32, ptr %48, align 4, !tbaa !7
  store i32 %49, ptr %10, align 4, !tbaa !7
  store i32 0, ptr %12, align 4
  br label %50

50:                                               ; preds = %39, %38
  call void @llvm.lifetime.end.p0(i64 4, ptr %11) #5
  %51 = load i32, ptr %12, align 4
  switch i32 %51, label %80 [
    i32 0, label %52
  ]

52:                                               ; preds = %50
  br label %53

53:                                               ; preds = %52, %3
  br label %54

54:                                               ; preds = %53
  %55 = load i32, ptr %10, align 4, !tbaa !7
  %56 = icmp ne i32 %55, 0
  br i1 %56, label %57, label %58

57:                                               ; preds = %54
  br i1 true, label %64, label %58

58:                                               ; preds = %57, %54
  br label %59

59:                                               ; preds = %58
  br label %60

60:                                               ; preds = %59
  br label %61

61:                                               ; preds = %60
  br label %62

62:                                               ; preds = %63, %61
  br label %63

63:                                               ; preds = %62
  br label %62

64:                                               ; preds = %57
  br label %65

65:                                               ; preds = %64
  br label %66

66:                                               ; preds = %65
  %67 = load i32, ptr %10, align 4, !tbaa !7
  %68 = call i32 @tlsf_ffs(i32 noundef %67)
  store i32 %68, ptr %9, align 4, !tbaa !7
  %69 = load i32, ptr %9, align 4, !tbaa !7
  %70 = load ptr, ptr %7, align 8, !tbaa !3
  store i32 %69, ptr %70, align 4, !tbaa !7
  %71 = load ptr, ptr %5, align 8, !tbaa !3
  %72 = getelementptr inbounds nuw %struct.control_t, ptr %71, i32 0, i32 3
  %73 = load i32, ptr %8, align 4, !tbaa !7
  %74 = sext i32 %73 to i64
  %75 = getelementptr inbounds [9 x [32 x ptr]], ptr %72, i64 0, i64 %74
  %76 = load i32, ptr %9, align 4, !tbaa !7
  %77 = sext i32 %76 to i64
  %78 = getelementptr inbounds [32 x ptr], ptr %75, i64 0, i64 %77
  %79 = load ptr, ptr %78, align 8, !tbaa !3
  store ptr %79, ptr %4, align 8
  store i32 1, ptr %12, align 4
  br label %80

80:                                               ; preds = %66, %50
  call void @llvm.lifetime.end.p0(i64 4, ptr %10) #5
  call void @llvm.lifetime.end.p0(i64 4, ptr %9) #5
  call void @llvm.lifetime.end.p0(i64 4, ptr %8) #5
  %81 = load ptr, ptr %4, align 8
  ret ptr %81
}

; Function Attrs: nounwind uwtable
define internal void @mapping_search(i64 noundef %0, ptr noundef %1, ptr noundef %2) #0 {
  %4 = alloca i64, align 8
  %5 = alloca ptr, align 8
  %6 = alloca ptr, align 8
  %7 = alloca i64, align 8
  store i64 %0, ptr %4, align 8, !tbaa !19
  store ptr %1, ptr %5, align 8, !tbaa !3
  store ptr %2, ptr %6, align 8, !tbaa !3
  %8 = load i64, ptr %4, align 8, !tbaa !19
  %9 = icmp uge i64 %8, 256
  br i1 %9, label %10, label %20

10:                                               ; preds = %3
  call void @llvm.lifetime.start.p0(i64 8, ptr %7) #5
  %11 = load i64, ptr %4, align 8, !tbaa !19
  %12 = call i32 @tlsf_fls_sizet(i64 noundef %11)
  %13 = sub nsw i32 %12, 5
  %14 = shl i32 1, %13
  %15 = sub nsw i32 %14, 1
  %16 = sext i32 %15 to i64
  store i64 %16, ptr %7, align 8, !tbaa !19
  %17 = load i64, ptr %7, align 8, !tbaa !19
  %18 = load i64, ptr %4, align 8, !tbaa !19
  %19 = add i64 %18, %17
  store i64 %19, ptr %4, align 8, !tbaa !19
  call void @llvm.lifetime.end.p0(i64 8, ptr %7) #5
  br label %20

20:                                               ; preds = %10, %3
  %21 = load i64, ptr %4, align 8, !tbaa !19
  %22 = load ptr, ptr %5, align 8, !tbaa !3
  %23 = load ptr, ptr %6, align 8, !tbaa !3
  call void @mapping_insert(i64 noundef %21, ptr noundef %22, ptr noundef %23)
  ret void
}

; Function Attrs: nounwind uwtable
define internal ptr @block_locate_free(ptr noundef %0, i64 noundef %1) #0 {
  %3 = alloca ptr, align 8
  %4 = alloca i64, align 8
  %5 = alloca i32, align 4
  %6 = alloca i32, align 4
  %7 = alloca ptr, align 8
  store ptr %0, ptr %3, align 8, !tbaa !3
  store i64 %1, ptr %4, align 8, !tbaa !19
  call void @llvm.lifetime.start.p0(i64 4, ptr %5) #5
  store i32 0, ptr %5, align 4, !tbaa !7
  call void @llvm.lifetime.start.p0(i64 4, ptr %6) #5
  store i32 0, ptr %6, align 4, !tbaa !7
  call void @llvm.lifetime.start.p0(i64 8, ptr %7) #5
  store ptr null, ptr %7, align 8, !tbaa !3
  %8 = load i64, ptr %4, align 8, !tbaa !19
  %9 = icmp ne i64 %8, 0
  br i1 %9, label %10, label %18

10:                                               ; preds = %2
  %11 = load i64, ptr %4, align 8, !tbaa !19
  call void @mapping_search(i64 noundef %11, ptr noundef %5, ptr noundef %6)
  %12 = load i32, ptr %5, align 4, !tbaa !7
  %13 = icmp slt i32 %12, 9
  br i1 %13, label %14, label %17

14:                                               ; preds = %10
  %15 = load ptr, ptr %3, align 8, !tbaa !3
  %16 = call ptr @search_suitable_block(ptr noundef %15, ptr noundef %5, ptr noundef %6)
  store ptr %16, ptr %7, align 8, !tbaa !3
  br label %17

17:                                               ; preds = %14, %10
  br label %18

18:                                               ; preds = %17, %2
  %19 = load ptr, ptr %7, align 8, !tbaa !3
  %20 = icmp ne ptr %19, null
  br i1 %20, label %21, label %40

21:                                               ; preds = %18
  br label %22

22:                                               ; preds = %21
  %23 = load ptr, ptr %7, align 8, !tbaa !3
  %24 = call i64 @block_size(ptr noundef %23)
  %25 = load i64, ptr %4, align 8, !tbaa !19
  %26 = icmp uge i64 %24, %25
  br i1 %26, label %33, label %27

27:                                               ; preds = %22
  br label %28

28:                                               ; preds = %27
  br label %29

29:                                               ; preds = %28
  br label %30

30:                                               ; preds = %29
  br label %31

31:                                               ; preds = %32, %30
  br label %32

32:                                               ; preds = %31
  br label %31

33:                                               ; preds = %22
  br label %34

34:                                               ; preds = %33
  br label %35

35:                                               ; preds = %34
  %36 = load ptr, ptr %3, align 8, !tbaa !3
  %37 = load ptr, ptr %7, align 8, !tbaa !3
  %38 = load i32, ptr %5, align 4, !tbaa !7
  %39 = load i32, ptr %6, align 4, !tbaa !7
  call void @remove_free_block(ptr noundef %36, ptr noundef %37, i32 noundef %38, i32 noundef %39)
  br label %40

40:                                               ; preds = %35, %18
  %41 = load ptr, ptr %7, align 8, !tbaa !3
  call void @llvm.lifetime.end.p0(i64 8, ptr %7) #5
  call void @llvm.lifetime.end.p0(i64 4, ptr %6) #5
  call void @llvm.lifetime.end.p0(i64 4, ptr %5) #5
  ret ptr %41
}